(lp1
ccopy_reg
_reconstructor
p2
(cfatiando.mesher
Prism
p3
c__builtin__
object
p4
NtRp5
(dp6
S'y2'
p7
F-7840
sS'y1'
p8
F-8000
sS'props'
p9
(dp10
S'magnetization'
p11
cnumpy.core.multiarray
_reconstruct
p12
(cnumpy
ndarray
p13
(I0
tS'b'
tRp14
(I1
(L3L
tcnumpy
dtype
p15
(S'f8'
I0
I1
tRp16
(I3
S'<'
NNNI-1
I-1
I0
tbI00
S'g~N\xa6\xf6\xba @\xa6&#gw\xee\x01\xc0\xff\xff\xff\xff\xff\xff\x13@'
tbssS'x2'
p17
F4000
sS'x1'
p18
F-4000
sS'z1'
p19
F0
sS'z2'
p20
F500
sbag2
(g3
g4
NtRp21
(dp22
g7
F-7680
sg8
F-7840
sg9
(dp23
g11
g12
(g13
(I0
tS'b'
tRp24
(I1
(L3L
tg16
I00
S'g~N\xa6\xf6\xba @\xa6&#gw\xee\x01\xc0\xff\xff\xff\xff\xff\xff\x13@'
tbssg17
F4000
sg18
F-4000
sg19
F40.404040404040401
sg20
F540.40404040404042
sbag2
(g3
g4
NtRp25
(dp26
g7
F-7520
sg8
F-7680
sg9
(dp27
g11
g12
(g13
(I0
tS'b'
tRp28
(I1
(L3L
tg16
I00
S'g~N\xa6\xf6\xba @\xa6&#gw\xee\x01\xc0\xff\xff\xff\xff\xff\xff\x13@'
tbssg17
F4000
sg18
F-4000
sg19
F80.808080808080803
sg20
F580.80808080808083
sbag2
(g3
g4
NtRp29
(dp30
g7
F-7360
sg8
F-7520
sg9
(dp31
g11
g12
(g13
(I0
tS'b'
tRp32
(I1
(L3L
tg16
I00
S'g~N\xa6\xf6\xba @\xa6&#gw\xee\x01\xc0\xff\xff\xff\xff\xff\xff\x13@'
tbssg17
F4000
sg18
F-4000
sg19
F121.2121212121212
sg20
F621.21212121212125
sbag2
(g3
g4
NtRp33
(dp34
g7
F-7200
sg8
F-7360
sg9
(dp35
g11
g12
(g13
(I0
tS'b'
tRp36
(I1
(L3L
tg16
I00
S'g~N\xa6\xf6\xba @\xa6&#gw\xee\x01\xc0\xff\xff\xff\xff\xff\xff\x13@'
tbssg17
F4000
sg18
F-4000
sg19
F161.61616161616161
sg20
F661.61616161616166
sbag2
(g3
g4
NtRp37
(dp38
g7
F-7040
sg8
F-7200
sg9
(dp39
g11
g12
(g13
(I0
tS'b'
tRp40
(I1
(L3L
tg16
I00
S'g~N\xa6\xf6\xba @\xa6&#gw\xee\x01\xc0\xff\xff\xff\xff\xff\xff\x13@'
tbssg17
F4000
sg18
F-4000
sg19
F202.02020202020202
sg20
F702.02020202020208
sbag2
(g3
g4
NtRp41
(dp42
g7
F-6880
sg8
F-7040
sg9
(dp43
g11
g12
(g13
(I0
tS'b'
tRp44
(I1
(L3L
tg16
I00
S'g~N\xa6\xf6\xba @\xa6&#gw\xee\x01\xc0\xff\xff\xff\xff\xff\xff\x13@'
tbssg17
F4000
sg18
F-4000
sg19
F242.42424242424241
sg20
F742.42424242424238
sbag2
(g3
g4
NtRp45
(dp46
g7
F-6720
sg8
F-6880
sg9
(dp47
g11
g12
(g13
(I0
tS'b'
tRp48
(I1
(L3L
tg16
I00
S'g~N\xa6\xf6\xba @\xa6&#gw\xee\x01\xc0\xff\xff\xff\xff\xff\xff\x13@'
tbssg17
F4000
sg18
F-4000
sg19
F282.82828282828279
sg20
F782.82828282828279
sbag2
(g3
g4
NtRp49
(dp50
g7
F-6560
sg8
F-6720
sg9
(dp51
g11
g12
(g13
(I0
tS'b'
tRp52
(I1
(L3L
tg16
I00
S'g~N\xa6\xf6\xba @\xa6&#gw\xee\x01\xc0\xff\xff\xff\xff\xff\xff\x13@'
tbssg17
F4000
sg18
F-4000
sg19
F323.23232323232321
sg20
F823.23232323232321
sbag2
(g3
g4
NtRp53
(dp54
g7
F-6400
sg8
F-6560
sg9
(dp55
g11
g12
(g13
(I0
tS'b'
tRp56
(I1
(L3L
tg16
I00
S'g~N\xa6\xf6\xba @\xa6&#gw\xee\x01\xc0\xff\xff\xff\xff\xff\xff\x13@'
tbssg17
F4000
sg18
F-4000
sg19
F363.63636363636363
sg20
F863.63636363636363
sbag2
(g3
g4
NtRp57
(dp58
g7
F-6240
sg8
F-6400
sg9
(dp59
g11
g12
(g13
(I0
tS'b'
tRp60
(I1
(L3L
tg16
I00
S'g~N\xa6\xf6\xba @\xa6&#gw\xee\x01\xc0\xff\xff\xff\xff\xff\xff\x13@'
tbssg17
F4000
sg18
F-4000
sg19
F404.04040404040404
sg20
F904.04040404040404
sbag2
(g3
g4
NtRp61
(dp62
g7
F-6080
sg8
F-6240
sg9
(dp63
g11
g12
(g13
(I0
tS'b'
tRp64
(I1
(L3L
tg16
I00
S'g~N\xa6\xf6\xba @\xa6&#gw\xee\x01\xc0\xff\xff\xff\xff\xff\xff\x13@'
tbssg17
F4000
sg18
F-4000
sg19
F444.4444444444444
sg20
F944.44444444444434
sbag2
(g3
g4
NtRp65
(dp66
g7
F-5920
sg8
F-6080
sg9
(dp67
g11
g12
(g13
(I0
tS'b'
tRp68
(I1
(L3L
tg16
I00
S'g~N\xa6\xf6\xba @\xa6&#gw\xee\x01\xc0\xff\xff\xff\xff\xff\xff\x13@'
tbssg17
F4000
sg18
F-4000
sg19
F484.84848484848482
sg20
F984.84848484848476
sbag2
(g3
g4
NtRp69
(dp70
g7
F-5760
sg8
F-5920
sg9
(dp71
g11
g12
(g13
(I0
tS'b'
tRp72
(I1
(L3L
tg16
I00
S'g~N\xa6\xf6\xba @\xa6&#gw\xee\x01\xc0\xff\xff\xff\xff\xff\xff\x13@'
tbssg17
F4000
sg18
F-4000
sg19
F525.25252525252517
sg20
F1025.2525252525252
sbag2
(g3
g4
NtRp73
(dp74
g7
F-5600
sg8
F-5760
sg9
(dp75
g11
g12
(g13
(I0
tS'b'
tRp76
(I1
(L3L
tg16
I00
S'g~N\xa6\xf6\xba @\xa6&#gw\xee\x01\xc0\xff\xff\xff\xff\xff\xff\x13@'
tbssg17
F4000
sg18
F-4000
sg19
F565.65656565656559
sg20
F1065.6565656565656
sbag2
(g3
g4
NtRp77
(dp78
g7
F-5440
sg8
F-5600
sg9
(dp79
g11
g12
(g13
(I0
tS'b'
tRp80
(I1
(L3L
tg16
I00
S'g~N\xa6\xf6\xba @\xa6&#gw\xee\x01\xc0\xff\xff\xff\xff\xff\xff\x13@'
tbssg17
F4000
sg18
F-4000
sg19
F606.06060606060601
sg20
F1106.060606060606
sbag2
(g3
g4
NtRp81
(dp82
g7
F-5280
sg8
F-5440
sg9
(dp83
g11
g12
(g13
(I0
tS'b'
tRp84
(I1
(L3L
tg16
I00
S'g~N\xa6\xf6\xba @\xa6&#gw\xee\x01\xc0\xff\xff\xff\xff\xff\xff\x13@'
tbssg17
F4000
sg18
F-4000
sg19
F646.46464646464642
sg20
F1146.4646464646464
sbag2
(g3
g4
NtRp85
(dp86
g7
F-5120
sg8
F-5280
sg9
(dp87
g11
g12
(g13
(I0
tS'b'
tRp88
(I1
(L3L
tg16
I00
S'g~N\xa6\xf6\xba @\xa6&#gw\xee\x01\xc0\xff\xff\xff\xff\xff\xff\x13@'
tbssg17
F4000
sg18
F-4000
sg19
F686.86868686868684
sg20
F1186.8686868686868
sbag2
(g3
g4
NtRp89
(dp90
g7
F-4960
sg8
F-5120
sg9
(dp91
g11
g12
(g13
(I0
tS'b'
tRp92
(I1
(L3L
tg16
I00
S'g~N\xa6\xf6\xba @\xa6&#gw\xee\x01\xc0\xff\xff\xff\xff\xff\xff\x13@'
tbssg17
F4000
sg18
F-4000
sg19
F727.27272727272725
sg20
F1227.2727272727273
sbag2
(g3
g4
NtRp93
(dp94
g7
F-4800
sg8
F-4960
sg9
(dp95
g11
g12
(g13
(I0
tS'b'
tRp96
(I1
(L3L
tg16
I00
S'g~N\xa6\xf6\xba @\xa6&#gw\xee\x01\xc0\xff\xff\xff\xff\xff\xff\x13@'
tbssg17
F4000
sg18
F-4000
sg19
F767.67676767676767
sg20
F1267.6767676767677
sbag2
(g3
g4
NtRp97
(dp98
g7
F-4640
sg8
F-4800
sg9
(dp99
g11
g12
(g13
(I0
tS'b'
tRp100
(I1
(L3L
tg16
I00
S'g~N\xa6\xf6\xba @\xa6&#gw\xee\x01\xc0\xff\xff\xff\xff\xff\xff\x13@'
tbssg17
F4000
sg18
F-4000
sg19
F808.08080808080808
sg20
F1308.0808080808081
sbag2
(g3
g4
NtRp101
(dp102
g7
F-4480
sg8
F-4640
sg9
(dp103
g11
g12
(g13
(I0
tS'b'
tRp104
(I1
(L3L
tg16
I00
S'g~N\xa6\xf6\xba @\xa6&#gw\xee\x01\xc0\xff\xff\xff\xff\xff\xff\x13@'
tbssg17
F4000
sg18
F-4000
sg19
F848.48484848484838
sg20
F1348.4848484848485
sbag2
(g3
g4
NtRp105
(dp106
g7
F-4320
sg8
F-4480
sg9
(dp107
g11
g12
(g13
(I0
tS'b'
tRp108
(I1
(L3L
tg16
I00
S'g~N\xa6\xf6\xba @\xa6&#gw\xee\x01\xc0\xff\xff\xff\xff\xff\xff\x13@'
tbssg17
F4000
sg18
F-4000
sg19
F888.8888888888888
sg20
F1388.8888888888887
sbag2
(g3
g4
NtRp109
(dp110
g7
F-4160
sg8
F-4320
sg9
(dp111
g11
g12
(g13
(I0
tS'b'
tRp112
(I1
(L3L
tg16
I00
S'g~N\xa6\xf6\xba @\xa6&#gw\xee\x01\xc0\xff\xff\xff\xff\xff\xff\x13@'
tbssg17
F4000
sg18
F-4000
sg19
F929.29292929292922
sg20
F1429.2929292929293
sbag2
(g3
g4
NtRp113
(dp114
g7
F-4000
sg8
F-4160
sg9
(dp115
g11
g12
(g13
(I0
tS'b'
tRp116
(I1
(L3L
tg16
I00
S'g~N\xa6\xf6\xba @\xa6&#gw\xee\x01\xc0\xff\xff\xff\xff\xff\xff\x13@'
tbssg17
F4000
sg18
F-4000
sg19
F969.69696969696963
sg20
F1469.6969696969695
sbag2
(g3
g4
NtRp117
(dp118
g7
F-3840
sg8
F-4000
sg9
(dp119
g11
g12
(g13
(I0
tS'b'
tRp120
(I1
(L3L
tg16
I00
S'g~N\xa6\xf6\xba @\xa6&#gw\xee\x01\xc0\xff\xff\xff\xff\xff\xff\x13@'
tbssg17
F4000
sg18
F-4000
sg19
F1010.10101010101
sg20
F1510.1010101010102
sbag2
(g3
g4
NtRp121
(dp122
g7
F-3680
sg8
F-3840
sg9
(dp123
g11
g12
(g13
(I0
tS'b'
tRp124
(I1
(L3L
tg16
I00
S'g~N\xa6\xf6\xba @\xa6&#gw\xee\x01\xc0\xff\xff\xff\xff\xff\xff\x13@'
tbssg17
F4000
sg18
F-4000
sg19
F1050.5050505050503
sg20
F1550.5050505050503
sbag2
(g3
g4
NtRp125
(dp126
g7
F-3520
sg8
F-3680
sg9
(dp127
g11
g12
(g13
(I0
tS'b'
tRp128
(I1
(L3L
tg16
I00
S'g~N\xa6\xf6\xba @\xa6&#gw\xee\x01\xc0\xff\xff\xff\xff\xff\xff\x13@'
tbssg17
F4000
sg18
F-4000
sg19
F1090.9090909090908
sg20
F1590.9090909090908
sbag2
(g3
g4
NtRp129
(dp130
g7
F-3360
sg8
F-3520
sg9
(dp131
g11
g12
(g13
(I0
tS'b'
tRp132
(I1
(L3L
tg16
I00
S'g~N\xa6\xf6\xba @\xa6&#gw\xee\x01\xc0\xff\xff\xff\xff\xff\xff\x13@'
tbssg17
F4000
sg18
F-4000
sg19
F1131.3131313131312
sg20
F1631.3131313131312
sbag2
(g3
g4
NtRp133
(dp134
g7
F-3200
sg8
F-3360
sg9
(dp135
g11
g12
(g13
(I0
tS'b'
tRp136
(I1
(L3L
tg16
I00
S'g~N\xa6\xf6\xba @\xa6&#gw\xee\x01\xc0\xff\xff\xff\xff\xff\xff\x13@'
tbssg17
F4000
sg18
F-4000
sg19
F1171.7171717171716
sg20
F1671.7171717171716
sbag2
(g3
g4
NtRp137
(dp138
g7
F-3040
sg8
F-3200
sg9
(dp139
g11
g12
(g13
(I0
tS'b'
tRp140
(I1
(L3L
tg16
I00
S'g~N\xa6\xf6\xba @\xa6&#gw\xee\x01\xc0\xff\xff\xff\xff\xff\xff\x13@'
tbssg17
F4000
sg18
F-4000
sg19
F1212.121212121212
sg20
F1712.121212121212
sbag2
(g3
g4
NtRp141
(dp142
g7
F-2880
sg8
F-3040
sg9
(dp143
g11
g12
(g13
(I0
tS'b'
tRp144
(I1
(L3L
tg16
I00
S'g~N\xa6\xf6\xba @\xa6&#gw\xee\x01\xc0\xff\xff\xff\xff\xff\xff\x13@'
tbssg17
F4000
sg18
F-4000
sg19
F1252.5252525252524
sg20
F1752.5252525252524
sbag2
(g3
g4
NtRp145
(dp146
g7
F-2720
sg8
F-2880
sg9
(dp147
g11
g12
(g13
(I0
tS'b'
tRp148
(I1
(L3L
tg16
I00
S'g~N\xa6\xf6\xba @\xa6&#gw\xee\x01\xc0\xff\xff\xff\xff\xff\xff\x13@'
tbssg17
F4000
sg18
F-4000
sg19
F1292.9292929292928
sg20
F1792.9292929292928
sbag2
(g3
g4
NtRp149
(dp150
g7
F-2560
sg8
F-2720
sg9
(dp151
g11
g12
(g13
(I0
tS'b'
tRp152
(I1
(L3L
tg16
I00
S'g~N\xa6\xf6\xba @\xa6&#gw\xee\x01\xc0\xff\xff\xff\xff\xff\xff\x13@'
tbssg17
F4000
sg18
F-4000
sg19
F1333.3333333333333
sg20
F1833.3333333333333
sbag2
(g3
g4
NtRp153
(dp154
g7
F-2400
sg8
F-2560
sg9
(dp155
g11
g12
(g13
(I0
tS'b'
tRp156
(I1
(L3L
tg16
I00
S'g~N\xa6\xf6\xba @\xa6&#gw\xee\x01\xc0\xff\xff\xff\xff\xff\xff\x13@'
tbssg17
F4000
sg18
F-4000
sg19
F1373.7373737373737
sg20
F1873.7373737373737
sbag2
(g3
g4
NtRp157
(dp158
g7
F-2240
sg8
F-2400
sg9
(dp159
g11
g12
(g13
(I0
tS'b'
tRp160
(I1
(L3L
tg16
I00
S'g~N\xa6\xf6\xba @\xa6&#gw\xee\x01\xc0\xff\xff\xff\xff\xff\xff\x13@'
tbssg17
F4000
sg18
F-4000
sg19
F1414.1414141414141
sg20
F1914.1414141414141
sbag2
(g3
g4
NtRp161
(dp162
g7
F-2080
sg8
F-2240
sg9
(dp163
g11
g12
(g13
(I0
tS'b'
tRp164
(I1
(L3L
tg16
I00
S'g~N\xa6\xf6\xba @\xa6&#gw\xee\x01\xc0\xff\xff\xff\xff\xff\xff\x13@'
tbssg17
F4000
sg18
F-4000
sg19
F1454.5454545454545
sg20
F1954.5454545454545
sbag2
(g3
g4
NtRp165
(dp166
g7
F-1920
sg8
F-2080
sg9
(dp167
g11
g12
(g13
(I0
tS'b'
tRp168
(I1
(L3L
tg16
I00
S'g~N\xa6\xf6\xba @\xa6&#gw\xee\x01\xc0\xff\xff\xff\xff\xff\xff\x13@'
tbssg17
F4000
sg18
F-4000
sg19
F1494.9494949494949
sg20
F1994.9494949494949
sbag2
(g3
g4
NtRp169
(dp170
g7
F-1760
sg8
F-1920
sg9
(dp171
g11
g12
(g13
(I0
tS'b'
tRp172
(I1
(L3L
tg16
I00
S'g~N\xa6\xf6\xba @\xa6&#gw\xee\x01\xc0\xff\xff\xff\xff\xff\xff\x13@'
tbssg17
F4000
sg18
F-4000
sg19
F1535.3535353535353
sg20
F2035.3535353535353
sbag2
(g3
g4
NtRp173
(dp174
g7
F-1600
sg8
F-1760
sg9
(dp175
g11
g12
(g13
(I0
tS'b'
tRp176
(I1
(L3L
tg16
I00
S'g~N\xa6\xf6\xba @\xa6&#gw\xee\x01\xc0\xff\xff\xff\xff\xff\xff\x13@'
tbssg17
F4000
sg18
F-4000
sg19
F1575.7575757575758
sg20
F2075.757575757576
sbag2
(g3
g4
NtRp177
(dp178
g7
F-1440
sg8
F-1600
sg9
(dp179
g11
g12
(g13
(I0
tS'b'
tRp180
(I1
(L3L
tg16
I00
S'g~N\xa6\xf6\xba @\xa6&#gw\xee\x01\xc0\xff\xff\xff\xff\xff\xff\x13@'
tbssg17
F4000
sg18
F-4000
sg19
F1616.1616161616162
sg20
F2116.1616161616162
sbag2
(g3
g4
NtRp181
(dp182
g7
F-1280
sg8
F-1440
sg9
(dp183
g11
g12
(g13
(I0
tS'b'
tRp184
(I1
(L3L
tg16
I00
S'g~N\xa6\xf6\xba @\xa6&#gw\xee\x01\xc0\xff\xff\xff\xff\xff\xff\x13@'
tbssg17
F4000
sg18
F-4000
sg19
F1656.5656565656564
sg20
F2156.5656565656564
sbag2
(g3
g4
NtRp185
(dp186
g7
F-1120
sg8
F-1280
sg9
(dp187
g11
g12
(g13
(I0
tS'b'
tRp188
(I1
(L3L
tg16
I00
S'g~N\xa6\xf6\xba @\xa6&#gw\xee\x01\xc0\xff\xff\xff\xff\xff\xff\x13@'
tbssg17
F4000
sg18
F-4000
sg19
F1696.9696969696968
sg20
F2196.969696969697
sbag2
(g3
g4
NtRp189
(dp190
g7
F-960
sg8
F-1120
sg9
(dp191
g11
g12
(g13
(I0
tS'b'
tRp192
(I1
(L3L
tg16
I00
S'g~N\xa6\xf6\xba @\xa6&#gw\xee\x01\xc0\xff\xff\xff\xff\xff\xff\x13@'
tbssg17
F4000
sg18
F-4000
sg19
F1737.3737373737372
sg20
F2237.3737373737372
sbag2
(g3
g4
NtRp193
(dp194
g7
F-800
sg8
F-960
sg9
(dp195
g11
g12
(g13
(I0
tS'b'
tRp196
(I1
(L3L
tg16
I00
S'g~N\xa6\xf6\xba @\xa6&#gw\xee\x01\xc0\xff\xff\xff\xff\xff\xff\x13@'
tbssg17
F4000
sg18
F-4000
sg19
F1777.7777777777776
sg20
F2277.7777777777774
sbag2
(g3
g4
NtRp197
(dp198
g7
F-640
sg8
F-800
sg9
(dp199
g11
g12
(g13
(I0
tS'b'
tRp200
(I1
(L3L
tg16
I00
S'g~N\xa6\xf6\xba @\xa6&#gw\xee\x01\xc0\xff\xff\xff\xff\xff\xff\x13@'
tbssg17
F4000
sg18
F-4000
sg19
F1818.181818181818
sg20
F2318.181818181818
sbag2
(g3
g4
NtRp201
(dp202
g7
F-480
sg8
F-640
sg9
(dp203
g11
g12
(g13
(I0
tS'b'
tRp204
(I1
(L3L
tg16
I00
S'g~N\xa6\xf6\xba @\xa6&#gw\xee\x01\xc0\xff\xff\xff\xff\xff\xff\x13@'
tbssg17
F4000
sg18
F-4000
sg19
F1858.5858585858584
sg20
F2358.5858585858587
sbag2
(g3
g4
NtRp205
(dp206
g7
F-320
sg8
F-480
sg9
(dp207
g11
g12
(g13
(I0
tS'b'
tRp208
(I1
(L3L
tg16
I00
S'g~N\xa6\xf6\xba @\xa6&#gw\xee\x01\xc0\xff\xff\xff\xff\xff\xff\x13@'
tbssg17
F4000
sg18
F-4000
sg19
F1898.9898989898988
sg20
F2398.9898989898988
sbag2
(g3
g4
NtRp209
(dp210
g7
F-160
sg8
F-320
sg9
(dp211
g11
g12
(g13
(I0
tS'b'
tRp212
(I1
(L3L
tg16
I00
S'g~N\xa6\xf6\xba @\xa6&#gw\xee\x01\xc0\xff\xff\xff\xff\xff\xff\x13@'
tbssg17
F4000
sg18
F-4000
sg19
F1939.3939393939393
sg20
F2439.393939393939
sbag2
(g3
g4
NtRp213
(dp214
g7
F0
sg8
F-160
sg9
(dp215
g11
g12
(g13
(I0
tS'b'
tRp216
(I1
(L3L
tg16
I00
S'g~N\xa6\xf6\xba @\xa6&#gw\xee\x01\xc0\xff\xff\xff\xff\xff\xff\x13@'
tbssg17
F4000
sg18
F-4000
sg19
F1979.7979797979797
sg20
F2479.7979797979797
sbag2
(g3
g4
NtRp217
(dp218
g7
F160
sg8
F0
sg9
(dp219
g11
g12
(g13
(I0
tS'b'
tRp220
(I1
(L3L
tg16
I00
S'g~N\xa6\xf6\xba @\xa6&#gw\xee\x01\xc0\xff\xff\xff\xff\xff\xff\x13@'
tbssg17
F4000
sg18
F-4000
sg19
F2020.2020202020201
sg20
F2520.2020202020203
sbag2
(g3
g4
NtRp221
(dp222
g7
F320
sg8
F160
sg9
(dp223
g11
g12
(g13
(I0
tS'b'
tRp224
(I1
(L3L
tg16
I00
S'g~N\xa6\xf6\xba @\xa6&#gw\xee\x01\xc0\xff\xff\xff\xff\xff\xff\x13@'
tbssg17
F4000
sg18
F-4000
sg19
F2060.6060606060605
sg20
F2560.6060606060605
sbag2
(g3
g4
NtRp225
(dp226
g7
F480
sg8
F320
sg9
(dp227
g11
g12
(g13
(I0
tS'b'
tRp228
(I1
(L3L
tg16
I00
S'g~N\xa6\xf6\xba @\xa6&#gw\xee\x01\xc0\xff\xff\xff\xff\xff\xff\x13@'
tbssg17
F4000
sg18
F-4000
sg19
F2101.0101010101007
sg20
F2601.0101010101007
sbag2
(g3
g4
NtRp229
(dp230
g7
F640
sg8
F480
sg9
(dp231
g11
g12
(g13
(I0
tS'b'
tRp232
(I1
(L3L
tg16
I00
S'g~N\xa6\xf6\xba @\xa6&#gw\xee\x01\xc0\xff\xff\xff\xff\xff\xff\x13@'
tbssg17
F4000
sg18
F-4000
sg19
F2141.4141414141413
sg20
F2641.4141414141413
sbag2
(g3
g4
NtRp233
(dp234
g7
F800
sg8
F640
sg9
(dp235
g11
g12
(g13
(I0
tS'b'
tRp236
(I1
(L3L
tg16
I00
S'g~N\xa6\xf6\xba @\xa6&#gw\xee\x01\xc0\xff\xff\xff\xff\xff\xff\x13@'
tbssg17
F4000
sg18
F-4000
sg19
F2181.8181818181815
sg20
F2681.8181818181815
sbag2
(g3
g4
NtRp237
(dp238
g7
F960
sg8
F800
sg9
(dp239
g11
g12
(g13
(I0
tS'b'
tRp240
(I1
(L3L
tg16
I00
S'g~N\xa6\xf6\xba @\xa6&#gw\xee\x01\xc0\xff\xff\xff\xff\xff\xff\x13@'
tbssg17
F4000
sg18
F-4000
sg19
F2222.2222222222222
sg20
F2722.2222222222222
sbag2
(g3
g4
NtRp241
(dp242
g7
F1120
sg8
F960
sg9
(dp243
g11
g12
(g13
(I0
tS'b'
tRp244
(I1
(L3L
tg16
I00
S'g~N\xa6\xf6\xba @\xa6&#gw\xee\x01\xc0\xff\xff\xff\xff\xff\xff\x13@'
tbssg17
F4000
sg18
F-4000
sg19
F2262.6262626262624
sg20
F2762.6262626262624
sbag2
(g3
g4
NtRp245
(dp246
g7
F1280
sg8
F1120
sg9
(dp247
g11
g12
(g13
(I0
tS'b'
tRp248
(I1
(L3L
tg16
I00
S'g~N\xa6\xf6\xba @\xa6&#gw\xee\x01\xc0\xff\xff\xff\xff\xff\xff\x13@'
tbssg17
F4000
sg18
F-4000
sg19
F2303.030303030303
sg20
F2803.030303030303
sbag2
(g3
g4
NtRp249
(dp250
g7
F1440
sg8
F1280
sg9
(dp251
g11
g12
(g13
(I0
tS'b'
tRp252
(I1
(L3L
tg16
I00
S'g~N\xa6\xf6\xba @\xa6&#gw\xee\x01\xc0\xff\xff\xff\xff\xff\xff\x13@'
tbssg17
F4000
sg18
F-4000
sg19
F2343.4343434343432
sg20
F2843.4343434343432
sbag2
(g3
g4
NtRp253
(dp254
g7
F1600
sg8
F1440
sg9
(dp255
g11
g12
(g13
(I0
tS'b'
tRp256
(I1
(L3L
tg16
I00
S'g~N\xa6\xf6\xba @\xa6&#gw\xee\x01\xc0\xff\xff\xff\xff\xff\xff\x13@'
tbssg17
F4000
sg18
F-4000
sg19
F2383.8383838383838
sg20
F2883.8383838383838
sbag2
(g3
g4
NtRp257
(dp258
g7
F1760
sg8
F1600
sg9
(dp259
g11
g12
(g13
(I0
tS'b'
tRp260
(I1
(L3L
tg16
I00
S'g~N\xa6\xf6\xba @\xa6&#gw\xee\x01\xc0\xff\xff\xff\xff\xff\xff\x13@'
tbssg17
F4000
sg18
F-4000
sg19
F2424.242424242424
sg20
F2924.242424242424
sbag2
(g3
g4
NtRp261
(dp262
g7
F1920
sg8
F1760
sg9
(dp263
g11
g12
(g13
(I0
tS'b'
tRp264
(I1
(L3L
tg16
I00
S'g~N\xa6\xf6\xba @\xa6&#gw\xee\x01\xc0\xff\xff\xff\xff\xff\xff\x13@'
tbssg17
F4000
sg18
F-4000
sg19
F2464.6464646464647
sg20
F2964.6464646464647
sbag2
(g3
g4
NtRp265
(dp266
g7
F2080
sg8
F1920
sg9
(dp267
g11
g12
(g13
(I0
tS'b'
tRp268
(I1
(L3L
tg16
I00
S'g~N\xa6\xf6\xba @\xa6&#gw\xee\x01\xc0\xff\xff\xff\xff\xff\xff\x13@'
tbssg17
F4000
sg18
F-4000
sg19
F2505.0505050505049
sg20
F3005.0505050505049
sbag2
(g3
g4
NtRp269
(dp270
g7
F2240
sg8
F2080
sg9
(dp271
g11
g12
(g13
(I0
tS'b'
tRp272
(I1
(L3L
tg16
I00
S'g~N\xa6\xf6\xba @\xa6&#gw\xee\x01\xc0\xff\xff\xff\xff\xff\xff\x13@'
tbssg17
F4000
sg18
F-4000
sg19
F2545.4545454545455
sg20
F3045.4545454545455
sbag2
(g3
g4
NtRp273
(dp274
g7
F2400
sg8
F2240
sg9
(dp275
g11
g12
(g13
(I0
tS'b'
tRp276
(I1
(L3L
tg16
I00
S'g~N\xa6\xf6\xba @\xa6&#gw\xee\x01\xc0\xff\xff\xff\xff\xff\xff\x13@'
tbssg17
F4000
sg18
F-4000
sg19
F2585.8585858585857
sg20
F3085.8585858585857
sbag2
(g3
g4
NtRp277
(dp278
g7
F2560
sg8
F2400
sg9
(dp279
g11
g12
(g13
(I0
tS'b'
tRp280
(I1
(L3L
tg16
I00
S'g~N\xa6\xf6\xba @\xa6&#gw\xee\x01\xc0\xff\xff\xff\xff\xff\xff\x13@'
tbssg17
F4000
sg18
F-4000
sg19
F2626.2626262626259
sg20
F3126.2626262626259
sbag2
(g3
g4
NtRp281
(dp282
g7
F2720
sg8
F2560
sg9
(dp283
g11
g12
(g13
(I0
tS'b'
tRp284
(I1
(L3L
tg16
I00
S'g~N\xa6\xf6\xba @\xa6&#gw\xee\x01\xc0\xff\xff\xff\xff\xff\xff\x13@'
tbssg17
F4000
sg18
F-4000
sg19
F2666.6666666666665
sg20
F3166.6666666666665
sbag2
(g3
g4
NtRp285
(dp286
g7
F2880
sg8
F2720
sg9
(dp287
g11
g12
(g13
(I0
tS'b'
tRp288
(I1
(L3L
tg16
I00
S'g~N\xa6\xf6\xba @\xa6&#gw\xee\x01\xc0\xff\xff\xff\xff\xff\xff\x13@'
tbssg17
F4000
sg18
F-4000
sg19
F2707.0707070707067
sg20
F3207.0707070707067
sbag2
(g3
g4
NtRp289
(dp290
g7
F3040
sg8
F2880
sg9
(dp291
g11
g12
(g13
(I0
tS'b'
tRp292
(I1
(L3L
tg16
I00
S'g~N\xa6\xf6\xba @\xa6&#gw\xee\x01\xc0\xff\xff\xff\xff\xff\xff\x13@'
tbssg17
F4000
sg18
F-4000
sg19
F2747.4747474747473
sg20
F3247.4747474747473
sbag2
(g3
g4
NtRp293
(dp294
g7
F3200
sg8
F3040
sg9
(dp295
g11
g12
(g13
(I0
tS'b'
tRp296
(I1
(L3L
tg16
I00
S'g~N\xa6\xf6\xba @\xa6&#gw\xee\x01\xc0\xff\xff\xff\xff\xff\xff\x13@'
tbssg17
F4000
sg18
F-4000
sg19
F2787.8787878787875
sg20
F3287.8787878787875
sbag2
(g3
g4
NtRp297
(dp298
g7
F3360
sg8
F3200
sg9
(dp299
g11
g12
(g13
(I0
tS'b'
tRp300
(I1
(L3L
tg16
I00
S'g~N\xa6\xf6\xba @\xa6&#gw\xee\x01\xc0\xff\xff\xff\xff\xff\xff\x13@'
tbssg17
F4000
sg18
F-4000
sg19
F2828.2828282828282
sg20
F3328.2828282828282
sbag2
(g3
g4
NtRp301
(dp302
g7
F3520
sg8
F3360
sg9
(dp303
g11
g12
(g13
(I0
tS'b'
tRp304
(I1
(L3L
tg16
I00
S'g~N\xa6\xf6\xba @\xa6&#gw\xee\x01\xc0\xff\xff\xff\xff\xff\xff\x13@'
tbssg17
F4000
sg18
F-4000
sg19
F2868.6868686868684
sg20
F3368.6868686868684
sbag2
(g3
g4
NtRp305
(dp306
g7
F3680
sg8
F3520
sg9
(dp307
g11
g12
(g13
(I0
tS'b'
tRp308
(I1
(L3L
tg16
I00
S'g~N\xa6\xf6\xba @\xa6&#gw\xee\x01\xc0\xff\xff\xff\xff\xff\xff\x13@'
tbssg17
F4000
sg18
F-4000
sg19
F2909.090909090909
sg20
F3409.090909090909
sbag2
(g3
g4
NtRp309
(dp310
g7
F3840
sg8
F3680
sg9
(dp311
g11
g12
(g13
(I0
tS'b'
tRp312
(I1
(L3L
tg16
I00
S'g~N\xa6\xf6\xba @\xa6&#gw\xee\x01\xc0\xff\xff\xff\xff\xff\xff\x13@'
tbssg17
F4000
sg18
F-4000
sg19
F2949.4949494949492
sg20
F3449.4949494949492
sbag2
(g3
g4
NtRp313
(dp314
g7
F4000
sg8
F3840
sg9
(dp315
g11
g12
(g13
(I0
tS'b'
tRp316
(I1
(L3L
tg16
I00
S'g~N\xa6\xf6\xba @\xa6&#gw\xee\x01\xc0\xff\xff\xff\xff\xff\xff\x13@'
tbssg17
F4000
sg18
F-4000
sg19
F2989.8989898989898
sg20
F3489.8989898989898
sbag2
(g3
g4
NtRp317
(dp318
g7
F4160
sg8
F4000
sg9
(dp319
g11
g12
(g13
(I0
tS'b'
tRp320
(I1
(L3L
tg16
I00
S'g~N\xa6\xf6\xba @\xa6&#gw\xee\x01\xc0\xff\xff\xff\xff\xff\xff\x13@'
tbssg17
F4000
sg18
F-4000
sg19
F3030.30303030303
sg20
F3530.30303030303
sbag2
(g3
g4
NtRp321
(dp322
g7
F4320
sg8
F4160
sg9
(dp323
g11
g12
(g13
(I0
tS'b'
tRp324
(I1
(L3L
tg16
I00
S'g~N\xa6\xf6\xba @\xa6&#gw\xee\x01\xc0\xff\xff\xff\xff\xff\xff\x13@'
tbssg17
F4000
sg18
F-4000
sg19
F3070.7070707070707
sg20
F3570.7070707070707
sbag2
(g3
g4
NtRp325
(dp326
g7
F4480
sg8
F4320
sg9
(dp327
g11
g12
(g13
(I0
tS'b'
tRp328
(I1
(L3L
tg16
I00
S'g~N\xa6\xf6\xba @\xa6&#gw\xee\x01\xc0\xff\xff\xff\xff\xff\xff\x13@'
tbssg17
F4000
sg18
F-4000
sg19
F3111.1111111111109
sg20
F3611.1111111111109
sbag2
(g3
g4
NtRp329
(dp330
g7
F4640
sg8
F4480
sg9
(dp331
g11
g12
(g13
(I0
tS'b'
tRp332
(I1
(L3L
tg16
I00
S'g~N\xa6\xf6\xba @\xa6&#gw\xee\x01\xc0\xff\xff\xff\xff\xff\xff\x13@'
tbssg17
F4000
sg18
F-4000
sg19
F3151.5151515151515
sg20
F3651.5151515151515
sbag2
(g3
g4
NtRp333
(dp334
g7
F4800
sg8
F4640
sg9
(dp335
g11
g12
(g13
(I0
tS'b'
tRp336
(I1
(L3L
tg16
I00
S'g~N\xa6\xf6\xba @\xa6&#gw\xee\x01\xc0\xff\xff\xff\xff\xff\xff\x13@'
tbssg17
F4000
sg18
F-4000
sg19
F3191.9191919191917
sg20
F3691.9191919191917
sbag2
(g3
g4
NtRp337
(dp338
g7
F4960
sg8
F4800
sg9
(dp339
g11
g12
(g13
(I0
tS'b'
tRp340
(I1
(L3L
tg16
I00
S'g~N\xa6\xf6\xba @\xa6&#gw\xee\x01\xc0\xff\xff\xff\xff\xff\xff\x13@'
tbssg17
F4000
sg18
F-4000
sg19
F3232.3232323232323
sg20
F3732.3232323232323
sbag2
(g3
g4
NtRp341
(dp342
g7
F5120
sg8
F4960
sg9
(dp343
g11
g12
(g13
(I0
tS'b'
tRp344
(I1
(L3L
tg16
I00
S'g~N\xa6\xf6\xba @\xa6&#gw\xee\x01\xc0\xff\xff\xff\xff\xff\xff\x13@'
tbssg17
F4000
sg18
F-4000
sg19
F3272.7272727272725
sg20
F3772.7272727272725
sbag2
(g3
g4
NtRp345
(dp346
g7
F5280
sg8
F5120
sg9
(dp347
g11
g12
(g13
(I0
tS'b'
tRp348
(I1
(L3L
tg16
I00
S'g~N\xa6\xf6\xba @\xa6&#gw\xee\x01\xc0\xff\xff\xff\xff\xff\xff\x13@'
tbssg17
F4000
sg18
F-4000
sg19
F3313.1313131313127
sg20
F3813.1313131313127
sbag2
(g3
g4
NtRp349
(dp350
g7
F5440
sg8
F5280
sg9
(dp351
g11
g12
(g13
(I0
tS'b'
tRp352
(I1
(L3L
tg16
I00
S'g~N\xa6\xf6\xba @\xa6&#gw\xee\x01\xc0\xff\xff\xff\xff\xff\xff\x13@'
tbssg17
F4000
sg18
F-4000
sg19
F3353.5353535353534
sg20
F3853.5353535353534
sbag2
(g3
g4
NtRp353
(dp354
g7
F5600
sg8
F5440
sg9
(dp355
g11
g12
(g13
(I0
tS'b'
tRp356
(I1
(L3L
tg16
I00
S'g~N\xa6\xf6\xba @\xa6&#gw\xee\x01\xc0\xff\xff\xff\xff\xff\xff\x13@'
tbssg17
F4000
sg18
F-4000
sg19
F3393.9393939393935
sg20
F3893.9393939393935
sbag2
(g3
g4
NtRp357
(dp358
g7
F5760
sg8
F5600
sg9
(dp359
g11
g12
(g13
(I0
tS'b'
tRp360
(I1
(L3L
tg16
I00
S'g~N\xa6\xf6\xba @\xa6&#gw\xee\x01\xc0\xff\xff\xff\xff\xff\xff\x13@'
tbssg17
F4000
sg18
F-4000
sg19
F3434.3434343434342
sg20
F3934.3434343434342
sbag2
(g3
g4
NtRp361
(dp362
g7
F5920
sg8
F5760
sg9
(dp363
g11
g12
(g13
(I0
tS'b'
tRp364
(I1
(L3L
tg16
I00
S'g~N\xa6\xf6\xba @\xa6&#gw\xee\x01\xc0\xff\xff\xff\xff\xff\xff\x13@'
tbssg17
F4000
sg18
F-4000
sg19
F3474.7474747474744
sg20
F3974.7474747474744
sbag2
(g3
g4
NtRp365
(dp366
g7
F6080
sg8
F5920
sg9
(dp367
g11
g12
(g13
(I0
tS'b'
tRp368
(I1
(L3L
tg16
I00
S'g~N\xa6\xf6\xba @\xa6&#gw\xee\x01\xc0\xff\xff\xff\xff\xff\xff\x13@'
tbssg17
F4000
sg18
F-4000
sg19
F3515.151515151515
sg20
F4015.151515151515
sbag2
(g3
g4
NtRp369
(dp370
g7
F6240
sg8
F6080
sg9
(dp371
g11
g12
(g13
(I0
tS'b'
tRp372
(I1
(L3L
tg16
I00
S'g~N\xa6\xf6\xba @\xa6&#gw\xee\x01\xc0\xff\xff\xff\xff\xff\xff\x13@'
tbssg17
F4000
sg18
F-4000
sg19
F3555.5555555555552
sg20
F4055.5555555555552
sbag2
(g3
g4
NtRp373
(dp374
g7
F6400
sg8
F6240
sg9
(dp375
g11
g12
(g13
(I0
tS'b'
tRp376
(I1
(L3L
tg16
I00
S'g~N\xa6\xf6\xba @\xa6&#gw\xee\x01\xc0\xff\xff\xff\xff\xff\xff\x13@'
tbssg17
F4000
sg18
F-4000
sg19
F3595.9595959595958
sg20
F4095.9595959595958
sbag2
(g3
g4
NtRp377
(dp378
g7
F6560
sg8
F6400
sg9
(dp379
g11
g12
(g13
(I0
tS'b'
tRp380
(I1
(L3L
tg16
I00
S'g~N\xa6\xf6\xba @\xa6&#gw\xee\x01\xc0\xff\xff\xff\xff\xff\xff\x13@'
tbssg17
F4000
sg18
F-4000
sg19
F3636.363636363636
sg20
F4136.363636363636
sbag2
(g3
g4
NtRp381
(dp382
g7
F6720
sg8
F6560
sg9
(dp383
g11
g12
(g13
(I0
tS'b'
tRp384
(I1
(L3L
tg16
I00
S'g~N\xa6\xf6\xba @\xa6&#gw\xee\x01\xc0\xff\xff\xff\xff\xff\xff\x13@'
tbssg17
F4000
sg18
F-4000
sg19
F3676.7676767676767
sg20
F4176.7676767676767
sbag2
(g3
g4
NtRp385
(dp386
g7
F6880
sg8
F6720
sg9
(dp387
g11
g12
(g13
(I0
tS'b'
tRp388
(I1
(L3L
tg16
I00
S'g~N\xa6\xf6\xba @\xa6&#gw\xee\x01\xc0\xff\xff\xff\xff\xff\xff\x13@'
tbssg17
F4000
sg18
F-4000
sg19
F3717.1717171717169
sg20
F4217.1717171717173
sbag2
(g3
g4
NtRp389
(dp390
g7
F7040
sg8
F6880
sg9
(dp391
g11
g12
(g13
(I0
tS'b'
tRp392
(I1
(L3L
tg16
I00
S'g~N\xa6\xf6\xba @\xa6&#gw\xee\x01\xc0\xff\xff\xff\xff\xff\xff\x13@'
tbssg17
F4000
sg18
F-4000
sg19
F3757.5757575757575
sg20
F4257.575757575758
sbag2
(g3
g4
NtRp393
(dp394
g7
F7200
sg8
F7040
sg9
(dp395
g11
g12
(g13
(I0
tS'b'
tRp396
(I1
(L3L
tg16
I00
S'g~N\xa6\xf6\xba @\xa6&#gw\xee\x01\xc0\xff\xff\xff\xff\xff\xff\x13@'
tbssg17
F4000
sg18
F-4000
sg19
F3797.9797979797977
sg20
F4297.9797979797977
sbag2
(g3
g4
NtRp397
(dp398
g7
F7360
sg8
F7200
sg9
(dp399
g11
g12
(g13
(I0
tS'b'
tRp400
(I1
(L3L
tg16
I00
S'g~N\xa6\xf6\xba @\xa6&#gw\xee\x01\xc0\xff\xff\xff\xff\xff\xff\x13@'
tbssg17
F4000
sg18
F-4000
sg19
F3838.3838383838383
sg20
F4338.3838383838383
sbag2
(g3
g4
NtRp401
(dp402
g7
F7520
sg8
F7360
sg9
(dp403
g11
g12
(g13
(I0
tS'b'
tRp404
(I1
(L3L
tg16
I00
S'g~N\xa6\xf6\xba @\xa6&#gw\xee\x01\xc0\xff\xff\xff\xff\xff\xff\x13@'
tbssg17
F4000
sg18
F-4000
sg19
F3878.7878787878785
sg20
F4378.7878787878781
sbag2
(g3
g4
NtRp405
(dp406
g7
F7680
sg8
F7520
sg9
(dp407
g11
g12
(g13
(I0
tS'b'
tRp408
(I1
(L3L
tg16
I00
S'g~N\xa6\xf6\xba @\xa6&#gw\xee\x01\xc0\xff\xff\xff\xff\xff\xff\x13@'
tbssg17
F4000
sg18
F-4000
sg19
F3919.1919191919187
sg20
F4419.1919191919187
sbag2
(g3
g4
NtRp409
(dp410
g7
F7840
sg8
F7680
sg9
(dp411
g11
g12
(g13
(I0
tS'b'
tRp412
(I1
(L3L
tg16
I00
S'g~N\xa6\xf6\xba @\xa6&#gw\xee\x01\xc0\xff\xff\xff\xff\xff\xff\x13@'
tbssg17
F4000
sg18
F-4000
sg19
F3959.5959595959594
sg20
F4459.5959595959594
sba.